; Function Attrs: nounwind uwtable
define void @lv_switch_set_orientation(ptr noundef %0, i32 noundef %1) local_unnamed_addr #0 {
  %.not = icmp eq ptr %0, null
  br i1 %.not, label %.preheader, label %3

.preheader:                                       ; preds = %2, %.preheader
  br label %.preheader

3:                                                ; preds = %2
  %4 = getelementptr inbounds nuw i8, ptr %0, i64 68
  %5 = trunc i32 %1 to i8
  %6 = load i8, ptr %4, align 4
  %7 = and i8 %5, 7
  %8 = and i8 %6, -8
  %9 = or disjoint i8 %8, %7
  store i8 %9, ptr %4, align 4
  tail call void @lv_obj_invalidate(ptr noundef nonnull %0) #5
  ret void
}